; Function Attrs: mustprogress nounwind uwtable
define hidden noundef ptr @_ZN5ZPage5splitEm(ptr noundef nonnull align 8 dereferenceable(192) %0, i64 noundef %1) local_unnamed_addr #0 align 2 {
  %3 = alloca %class.ZPhysicalMemory, align 8
  %4 = icmp eq i64 %1, 2097152
  %5 = load i64, ptr @ZPageSizeMedium, align 8
  %6 = icmp eq i64 %5, %1
  %..i = select i1 %6, i8 1, i8 2
  %.0.i = select i1 %4, i8 0, i8 %..i
  call void @llvm.lifetime.start.p0(i64 16, ptr nonnull %3)
  %7 = getelementptr inbounds i8, ptr %0, i64 160
  call void @_ZN15ZPhysicalMemory5splitEm(ptr dead_on_unwind nonnull writable sret(%class.ZPhysicalMemory) align 8 %3, ptr noundef nonnull align 8 dereferenceable(16) %7, i64 noundef %1) #13
  %8 = call noundef ptr @_ZN5ZPage15split_with_pmemE9ZPageTypeRK15ZPhysicalMemory(ptr noundef nonnull align 8 dereferenceable(192) %0, i8 noundef zeroext %.0.i, ptr noundef nonnull align 8 dereferenceable(16) %3)
  store i32 0, ptr %3, align 8
  %9 = getelementptr inbounds i8, ptr %3, i64 4
  %10 = load i32, ptr %9, align 4
  %11 = icmp eq i32 %10, 0
  br i1 %11, label %_ZN5ZPage5splitE9ZPageTypem.exit, label %.loopexit.i.i.i.i.i

.loopexit.i.i.i.i.i:                              ; preds = %2
  %12 = getelementptr inbounds i8, ptr %3, i64 8
  %13 = load ptr, ptr %12, align 8
  store i32 0, ptr %9, align 4
  %.not.i.i.i.i.i = icmp eq ptr %13, null
  br i1 %.not.i.i.i.i.i, label %_ZN5ZPage5splitE9ZPageTypem.exit, label %.loopexit.thread.i.i.i.i.i

.loopexit.thread.i.i.i.i.i:                       ; preds = %.loopexit.i.i.i.i.i
  call void @_ZN27GrowableArrayCHeapAllocator10deallocateEPv(ptr noundef nonnull %13) #13
  br label %_ZN5ZPage5splitE9ZPageTypem.exit

_ZN5ZPage5splitE9ZPageTypem.exit:                 ; preds = %2, %.loopexit.i.i.i.i.i, %.loopexit.thread.i.i.i.i.i
  call void @llvm.lifetime.end.p0(i64 16, ptr nonnull %3)
  ret ptr %8
}